; Function Attrs: nounwind uwtable
define ptr @l_Std_Internal_IO_Async_Waiter_race___at___private_Std_Sync_Channel_0__Std_CloseableChannel_Unbounded_recvSelector___elambda__2___spec__3___rarg___lambda__2___boxed(ptr noundef %0, ptr noundef %1, ptr noundef %2, ptr noundef %3, ptr noundef %4) #1 {
  %6 = ptrtoint ptr %2 to i64
  %7 = lshr i64 %6, 1
  %8 = trunc i64 %7 to i8
  %9 = and i64 %6, 1
  %.not = icmp eq i64 %9, 0
  br i1 %.not, label %10, label %lean_dec.exit8

10:                                               ; preds = %5
  %11 = load i32, ptr %2, align 4, !tbaa !4
  %12 = icmp sgt i32 %11, 1
  br i1 %12, label %13, label %15, !prof !9

13:                                               ; preds = %10
  %14 = add nsw i32 %11, -1
  store i32 %14, ptr %2, align 4, !tbaa !4
  br label %lean_dec.exit8

15:                                               ; preds = %10
  %.not.i = icmp eq i32 %11, 0
  br i1 %.not.i, label %lean_dec.exit8, label %16

16:                                               ; preds = %15
  tail call void @lean_dec_ref_cold(ptr noundef nonnull %2) #7
  br label %lean_dec.exit8

lean_dec.exit8:                                   ; preds = %16, %15, %13, %5
  %17 = tail call ptr @l_Std_Internal_IO_Async_Waiter_race___at___private_Std_Sync_Channel_0__Std_CloseableChannel_Unbounded_recvSelector___elambda__2___spec__3___rarg___lambda__2(ptr noundef %0, ptr noundef %1, i8 noundef zeroext %8, ptr noundef %3, ptr noundef %4)
  %18 = ptrtoint ptr %1 to i64
  %19 = and i64 %18, 1
  %.not11 = icmp eq i64 %19, 0
  br i1 %.not11, label %20, label %lean_dec.exit

20:                                               ; preds = %lean_dec.exit8
  %21 = load i32, ptr %1, align 4, !tbaa !4
  %22 = icmp sgt i32 %21, 1
  br i1 %22, label %23, label %25, !prof !9

23:                                               ; preds = %20
  %24 = add nsw i32 %21, -1
  store i32 %24, ptr %1, align 4, !tbaa !4
  br label %lean_dec.exit

25:                                               ; preds = %20
  %.not.i9 = icmp eq i32 %21, 0
  br i1 %.not.i9, label %lean_dec.exit, label %26

26:                                               ; preds = %25
  tail call void @lean_dec_ref_cold(ptr noundef nonnull %1) #7
  br label %lean_dec.exit

lean_dec.exit:                                    ; preds = %26, %25, %23, %lean_dec.exit8
  ret ptr %17
}